target datalayout = "e-m:e-p270:32:32-p271:32:32-p272:64:64-i64:64-i128:128-f80:128-n8:16:32:64-S128"
target triple = "x86_64-unknown-linux-gnu"

%"class.std::__cxx11::basic_string" = type { %"struct.std::__cxx11::basic_string<char>::_Alloc_hider", i64, %union.anon }
%"struct.std::__cxx11::basic_string<char>::_Alloc_hider" = type { ptr }
%union.anon = type { i64, [8 x i8] }
%"class.net::QuicSpdyStream" = type { %"class.net::ReliableQuicStream.base", ptr, ptr, i8, i8, %"class.std::__cxx11::basic_string", %"class.net::QuicHeaderList", i8, i8, %"class.std::__cxx11::basic_string", %"class.net::SpdyHeaderBlock" }
%"class.net::ReliableQuicStream.base" = type <{ ptr, %"class.std::__cxx11::list", i64, %"class.net::QuicStreamSequencer", i32, [4 x i8], ptr, i64, i64, i32, i32, i8, i8, i8, i8, i8, i8, i8, i8, i32, [4 x i8], %"class.net::QuicFlowController", ptr, i8 }>
%"class.std::__cxx11::list" = type { %"class.std::__cxx11::_List_base" }
%"class.std::__cxx11::_List_base" = type { %"struct.std::__cxx11::_List_base<net::ReliableQuicStream::PendingData, std::allocator<net::ReliableQuicStream::PendingData>>::_List_impl" }
%"struct.std::__cxx11::_List_base<net::ReliableQuicStream::PendingData, std::allocator<net::ReliableQuicStream::PendingData>>::_List_impl" = type { %"struct.std::__detail::_List_node_header" }
%"struct.std::__detail::_List_node_header" = type { %"struct.std::__detail::_List_node_base", i64 }
%"struct.std::__detail::_List_node_base" = type { ptr, ptr }
%"class.net::QuicStreamSequencer" = type <{ ptr, ptr, %"class.net::QuicStreamSequencerBuffer", i64, i8, [3 x i8], i32, i32, [4 x i8], ptr, i8, [7 x i8] }>
%"class.net::QuicStreamSequencerBuffer" = type { i64, i64, i64, %"class.std::__cxx11::list.0", i8, %"class.std::unique_ptr", i64, %"class.std::map" }
%"class.std::__cxx11::list.0" = type { %"class.std::__cxx11::_List_base.1" }
%"class.std::__cxx11::_List_base.1" = type { %"struct.std::__cxx11::_List_base<net::QuicStreamSequencerBuffer::Gap, std::allocator<net::QuicStreamSequencerBuffer::Gap>>::_List_impl" }
%"struct.std::__cxx11::_List_base<net::QuicStreamSequencerBuffer::Gap, std::allocator<net::QuicStreamSequencerBuffer::Gap>>::_List_impl" = type { %"struct.std::__detail::_List_node_header" }
%"class.std::unique_ptr" = type { %"struct.std::__uniq_ptr_data" }
%"struct.std::__uniq_ptr_data" = type { %"class.std::__uniq_ptr_impl" }
%"class.std::__uniq_ptr_impl" = type { %"class.std::tuple" }
%"class.std::tuple" = type { %"struct.std::_Tuple_impl" }
%"struct.std::_Tuple_impl" = type { %"struct.std::_Head_base.6" }
%"struct.std::_Head_base.6" = type { ptr }
%"class.std::map" = type { %"class.std::_Rb_tree" }
%"class.std::_Rb_tree" = type { %"struct.std::_Rb_tree<unsigned long, std::pair<const unsigned long, net::QuicStreamSequencerBuffer::FrameInfo>, std::_Select1st<std::pair<const unsigned long, net::QuicStreamSequencerBuffer::FrameInfo>>, std::less<unsigned long>>::_Rb_tree_impl" }
%"struct.std::_Rb_tree<unsigned long, std::pair<const unsigned long, net::QuicStreamSequencerBuffer::FrameInfo>, std::_Select1st<std::pair<const unsigned long, net::QuicStreamSequencerBuffer::FrameInfo>>, std::less<unsigned long>>::_Rb_tree_impl" = type { %"struct.std::_Rb_tree_key_compare", %"struct.std::_Rb_tree_header" }
%"struct.std::_Rb_tree_key_compare" = type { %"struct.std::less" }
%"struct.std::less" = type { i8 }
%"struct.std::_Rb_tree_header" = type { %"struct.std::_Rb_tree_node_base", i64 }
%"struct.std::_Rb_tree_node_base" = type { i32, ptr, ptr, ptr }
%"class.net::QuicFlowController" = type { ptr, i32, i32, i64, i64, i64, i64, i64, i64, i64, i8, i64, %"class.net::QuicTime" }
%"class.net::QuicTime" = type { i64 }
%"class.net::QuicHeaderList" = type { %"class.net::SpdyHeadersHandlerInterface", %"class.std::deque", i64 }
%"class.net::SpdyHeadersHandlerInterface" = type { ptr }
%"class.std::deque" = type { %"class.std::_Deque_base" }
%"class.std::_Deque_base" = type { %"struct.std::_Deque_base<std::pair<std::__cxx11::basic_string<char>, std::__cxx11::basic_string<char>>, std::allocator<std::pair<std::__cxx11::basic_string<char>, std::__cxx11::basic_string<char>>>>::_Deque_impl" }
%"struct.std::_Deque_base<std::pair<std::__cxx11::basic_string<char>, std::__cxx11::basic_string<char>>, std::allocator<std::pair<std::__cxx11::basic_string<char>, std::__cxx11::basic_string<char>>>>::_Deque_impl" = type { %"struct.std::_Deque_base<std::pair<std::__cxx11::basic_string<char>, std::__cxx11::basic_string<char>>, std::allocator<std::pair<std::__cxx11::basic_string<char>, std::__cxx11::basic_string<char>>>>::_Deque_impl_data" }
%"struct.std::_Deque_base<std::pair<std::__cxx11::basic_string<char>, std::__cxx11::basic_string<char>>, std::allocator<std::pair<std::__cxx11::basic_string<char>, std::__cxx11::basic_string<char>>>>::_Deque_impl_data" = type { ptr, i64, %"struct.std::_Deque_iterator", %"struct.std::_Deque_iterator" }
%"struct.std::_Deque_iterator" = type { ptr, ptr, ptr, ptr }
%"class.net::SpdyHeaderBlock" = type { %class.linked_hash_map, %"class.std::unique_ptr.27" }
%class.linked_hash_map = type { %"class.std::unordered_map", %"class.std::__cxx11::list.22" }
%"class.std::unordered_map" = type { %"class.std::_Hashtable" }
%"class.std::_Hashtable" = type { ptr, i64, %"struct.std::__detail::_Hash_node_base", i64, %"struct.std::__detail::_Prime_rehash_policy", ptr }
%"struct.std::__detail::_Hash_node_base" = type { ptr }
%"struct.std::__detail::_Prime_rehash_policy" = type { float, i64 }
%"class.std::__cxx11::list.22" = type { %"class.std::__cxx11::_List_base.23" }
%"class.std::__cxx11::_List_base.23" = type { %"struct.std::__cxx11::_List_base<std::pair<base::BasicStringPiece<std::string>, base::BasicStringPiece<std::string>>, std::allocator<std::pair<base::BasicStringPiece<std::string>, base::BasicStringPiece<std::string>>>>::_List_impl" }
%"struct.std::__cxx11::_List_base<std::pair<base::BasicStringPiece<std::string>, base::BasicStringPiece<std::string>>, std::allocator<std::pair<base::BasicStringPiece<std::string>, base::BasicStringPiece<std::string>>>>::_List_impl" = type { %"struct.std::__detail::_List_node_header" }
%"class.std::unique_ptr.27" = type { %"struct.std::__uniq_ptr_data.28" }
%"struct.std::__uniq_ptr_data.28" = type { %"class.std::__uniq_ptr_impl.29" }
%"class.std::__uniq_ptr_impl.29" = type { %"class.std::tuple.30" }
%"class.std::tuple.30" = type { %"struct.std::_Tuple_impl.31" }
%"struct.std::_Tuple_impl.31" = type { %"struct.std::_Head_base.34" }
%"struct.std::_Head_base.34" = type { ptr }

; Function Attrs: mustprogress uwtable
define dso_local void @_ZN3net14QuicSpdyStream23OnStreamHeadersCompleteEbm(ptr noundef nonnull align 8 dereferenceable(664) %this, i1 noundef zeroext %fin, i64 noundef %frame_len) unnamed_addr #0 align 2 {
entry:
  %this.addr = alloca ptr, align 8
  %fin.addr = alloca i8, align 1
  %frame_len.addr = alloca i64, align 8
  store ptr %this, ptr %this.addr, align 8
  %frombool = zext i1 %fin to i8
  store i8 %frombool, ptr %fin.addr, align 1
  store i64 %frame_len, ptr %frame_len.addr, align 8
  %this1 = load ptr, ptr %this.addr, align 8
  %headers_decompressed_ = getelementptr inbounds %"class.net::QuicSpdyStream", ptr %this1, i32 0, i32 3
  %0 = load i8, ptr %headers_decompressed_, align 8
  %tobool = trunc i8 %0 to i1
  br i1 %tobool, label %if.else, label %if.then

if.then:                                          ; preds = %entry
  %1 = load i8, ptr %fin.addr, align 1
  %tobool2 = trunc i8 %1 to i1
  %2 = load i64, ptr %frame_len.addr, align 8
  %vtable = load ptr, ptr %this1, align 8
  %vfn = getelementptr inbounds ptr, ptr %vtable, i64 27
  %3 = load ptr, ptr %vfn, align 8
  call void %3(ptr noundef nonnull align 8 dereferenceable(664) %this1, i1 noundef zeroext %tobool2, i64 noundef %2)
  br label %if.end

if.else:                                          ; preds = %entry
  %4 = load i8, ptr %fin.addr, align 1
  %tobool3 = trunc i8 %4 to i1
  %5 = load i64, ptr %frame_len.addr, align 8
  %vtable4 = load ptr, ptr %this1, align 8
  %vfn5 = getelementptr inbounds ptr, ptr %vtable4, i64 28
  %6 = load ptr, ptr %vfn5, align 8
  call void %6(ptr noundef nonnull align 8 dereferenceable(664) %this1, i1 noundef zeroext %tobool3, i64 noundef %5)
  br label %if.end

if.end:                                           ; preds = %if.else, %if.then
  ret void
}